;--------------------------------------------------------
; File Created by SDCC : free open source ANSI-C Compiler
; Version 3.6.0 #9615 (MINGW64)
;--------------------------------------------------------
	.module gbgraphicstest
	.optsdcc -mgbz80
	
;--------------------------------------------------------
; Public variables in this module
;--------------------------------------------------------
	.globl _main
	.globl _move_sprite
	.globl _set_sprite_tile
	.globl _set_sprite_data
	.globl _set_bkg_tiles
	.globl _set_bkg_data
	.globl _display_off
	.globl _wait_vbl_done
	.globl _disable_interrupts
	.globl _enable_interrupts
	.globl _waitpad
	.globl _joypad
	.globl _i
	.globl _jPad
	.globl _y
	.globl _x
	.globl _squidTiles
	.globl _skullTrumpetBGMapData
	.globl _skullTrumpetBGTileData
;--------------------------------------------------------
; ram data
;--------------------------------------------------------
	.area _DATA
_squidTiles::
	.ds 16
_x::
	.ds 1
_y::
	.ds 1
_jPad::
	.ds 1
_i::
	.ds 1
;--------------------------------------------------------
; absolute external ram data
;--------------------------------------------------------
	.area _DABS (ABS)
;--------------------------------------------------------
; global & static initialisations
;--------------------------------------------------------
	.area _HOME
	.area _GSINIT
	.area _GSFINAL
	.area _GSINIT
;gbgraphicstest.c:115: unsigned char squidTiles[] =
	ld	hl,#_squidTiles
	ld	(hl),#0x00
	ld	hl,#(_squidTiles + 0x0001)
	ld	(hl),#0x00
	ld	hl,#(_squidTiles + 0x0002)
	ld	(hl),#0x3c
	ld	hl,#(_squidTiles + 0x0003)
	ld	(hl),#0x3c
	ld	hl,#(_squidTiles + 0x0004)
	ld	(hl),#0x7e
	ld	hl,#(_squidTiles + 0x0005)
	ld	(hl),#0x42
	ld	hl,#(_squidTiles + 0x0006)
	ld	(hl),#0x7e
	ld	hl,#(_squidTiles + 0x0007)
	ld	(hl),#0x56
	ld	hl,#(_squidTiles + 0x0008)
	ld	(hl),#0x7e
	ld	hl,#(_squidTiles + 0x0009)
	ld	(hl),#0x42
	ld	hl,#(_squidTiles + 0x000a)
	ld	(hl),#0x7c
	ld	hl,#(_squidTiles + 0x000b)
	ld	(hl),#0x7c
	ld	hl,#(_squidTiles + 0x000c)
	ld	(hl),#0x54
	ld	hl,#(_squidTiles + 0x000d)
	ld	(hl),#0x54
	ld	hl,#(_squidTiles + 0x000e)
	ld	(hl),#0x00
	ld	hl,#(_squidTiles + 0x000f)
	ld	(hl),#0x00
;--------------------------------------------------------
; Home
;--------------------------------------------------------
	.area _HOME
	.area _HOME
;--------------------------------------------------------
; code
;--------------------------------------------------------
	.area _CODE
;gbgraphicstest.c:123: void main ()
;	---------------------------------
; Function main
; ---------------------------------
_main::
;gbgraphicstest.c:125: x = 80;
	ld	hl,#_x
	ld	(hl),#0x50
;gbgraphicstest.c:126: y = 72;
	ld	hl,#_y
	ld	(hl),#0x48
;gbgraphicstest.c:129: disable_interrupts();
	call	_disable_interrupts
;gbgraphicstest.c:130: DISPLAY_OFF;
	call	_display_off
;gbgraphicstest.c:132: set_bkg_data(0, 360, skullTrumpetBGTileData);
	ld	hl,#_skullTrumpetBGTileData
	push	hl
	ld	hl,#0x6800
	push	hl
	call	_set_bkg_data
	add	sp, #4
;gbgraphicstest.c:133: set_bkg_tiles( 0, 0, 20, 18, skullTrumpetBGMapData);
	ld	hl,#_skullTrumpetBGMapData
	push	hl
	ld	hl,#0x1214
	push	hl
	ld	hl,#0x0000
	push	hl
	call	_set_bkg_tiles
	add	sp, #6
;gbgraphicstest.c:135: set_sprite_data(0, 1, squidTiles);
	ld	hl,#_squidTiles
	push	hl
	ld	hl,#0x0100
	push	hl
	call	_set_sprite_data
	add	sp, #4
;gbgraphicstest.c:136: set_sprite_tile(0,0);
	ld	hl,#0x0000
	push	hl
	call	_set_sprite_tile
	add	sp, #2
;gbgraphicstest.c:137: move_sprite(0, x, y);
	ld	hl,#_y
	ld	a,(hl)
	push	af
	inc	sp
	ld	hl,#_x
	ld	a,(hl)
	push	af
	inc	sp
	xor	a, a
	push	af
	inc	sp
	call	_move_sprite
	add	sp, #3
;gbgraphicstest.c:139: SHOW_BKG;
	ld	de,#0xff40
	ld	a,(de)
	ld	c,a
	ld	b,#0x00
	ld	a,c
	set	0, a
	ld	c,a
	ld	hl,#0xff40
	ld	(hl),c
;gbgraphicstest.c:140: SHOW_SPRITES;
	ld	de,#0xff40
	ld	a,(de)
	ld	c,a
	ld	b,#0x00
	ld	a,c
	set	1, a
	ld	c,a
	ld	l, #0x40
	ld	(hl),c
;gbgraphicstest.c:141: DISPLAY_ON;
	ld	de,#0xff40
	ld	a,(de)
	ld	c,a
	ld	b,#0x00
	ld	a,c
	set	7, a
	ld	c,a
	ld	l, #0x40
	ld	(hl),c
;gbgraphicstest.c:143: enable_interrupts();
	call	_enable_interrupts
;gbgraphicstest.c:147: while (1)
00111$:
;gbgraphicstest.c:149: for (i = 0; i < 3; i++)
	ld	hl,#_i
	ld	(hl),#0x00
00113$:
;gbgraphicstest.c:151: wait_vbl_done();
	call	_wait_vbl_done
;gbgraphicstest.c:149: for (i = 0; i < 3; i++)
	ld	hl,#_i
	inc	(hl)
	ld	a,(hl)
	sub	a, #0x03
	jr	C,00113$
;gbgraphicstest.c:154: waitpad(255);
	ld	a,#0xff
	push	af
	inc	sp
	call	_waitpad
	inc	sp
;gbgraphicstest.c:156: jPad = joypad();
	call	_joypad
	ld	hl,#_jPad
	ld	(hl),e
;gbgraphicstest.c:158: if (jPad & J_UP)
	ld	c,(hl)
	ld	b,#0x00
	bit	2, c
	jr	Z,00103$
;gbgraphicstest.c:159: y--;
	ld	hl,#_y
	dec	(hl)
00103$:
;gbgraphicstest.c:160: if (jPad & J_DOWN)
	bit	3, c
	jr	Z,00105$
;gbgraphicstest.c:161: y++;
	ld	hl,#_y
	inc	(hl)
00105$:
;gbgraphicstest.c:162: if (jPad & J_LEFT)
	bit	1, c
	jr	Z,00107$
;gbgraphicstest.c:163: x--;
	ld	hl,#_x
	dec	(hl)
00107$:
;gbgraphicstest.c:164: if (jPad & J_RIGHT)
	bit	0, c
	jr	Z,00109$
;gbgraphicstest.c:165: x++;
	ld	hl,#_x
	inc	(hl)
00109$:
;gbgraphicstest.c:167: move_sprite(0, x, y);
	ld	hl,#_y
	ld	a,(hl)
	push	af
	inc	sp
	ld	hl,#_x
	ld	a,(hl)
	push	af
	inc	sp
	xor	a, a
	push	af
	inc	sp
	call	_move_sprite
	add	sp, #3
	jp	00111$
	ret
_skullTrumpetBGTileData:
	.db #0x00	; 0
	.db #0x00	; 0
	.db #0x00	; 0
	.db #0x00	; 0
	.db #0x00	; 0
	.db #0x00	; 0
	.db #0x00	; 0
	.db #0x00	; 0
	.db #0x00	; 0
	.db #0x00	; 0
	.db #0x00	; 0
	.db #0x00	; 0
	.db #0x00	; 0
	.db #0x00	; 0
	.db #0x00	; 0
	.db #0x00	; 0
	.db #0x00	; 0
	.db #0x00	; 0
	.db #0x01	; 1
	.db #0x00	; 0
	.db #0x04	; 4
	.db #0x00	; 0
	.db #0x00	; 0
	.db #0x08	; 8
	.db #0x00	; 0
	.db #0x00	; 0
	.db #0x20	; 32
	.db #0x00	; 0
	.db #0x00	; 0
	.db #0x40	; 64
	.db #0x00	; 0
	.db #0x00	; 0
	.db #0x00	; 0
	.db #0x00	; 0
	.db #0xc1	; 193
	.db #0x00	; 0
	.db #0x00	; 0
	.db #0x00	; 0
	.db #0x00	; 0
	.db #0x00	; 0
	.db #0x00	; 0
	.db #0x00	; 0
	.db #0x00	; 0
	.db #0x00	; 0
	.db #0x00	; 0
	.db #0x00	; 0
	.db #0x00	; 0
	.db #0x00	; 0
	.db #0x00	; 0
	.db #0x00	; 0
	.db #0xc0	; 192
	.db #0x3c	; 60
	.db #0x01	; 1
	.db #0x00	; 0
	.db #0x00	; 0
	.db #0x00	; 0
	.db #0x00	; 0
	.db #0x00	; 0
	.db #0x00	; 0
	.db #0x00	; 0
	.db #0x00	; 0
	.db #0x00	; 0
	.db #0x00	; 0
	.db #0x00	; 0
	.db #0x00	; 0
	.db #0x00	; 0
	.db #0x00	; 0
	.db #0x00	; 0
	.db #0x80	; 128
	.db #0x00	; 0
	.db #0x30	; 48	'0'
	.db #0x00	; 0
	.db #0x00	; 0
	.db #0x00	; 0
	.db #0x08	; 8
	.db #0x00	; 0
	.db #0x04	; 4
	.db #0x00	; 0
	.db #0x04	; 4
	.db #0x00	; 0
	.db #0x00	; 0
	.db #0x00	; 0
	.db #0x00	; 0
	.db #0x02	; 2
	.db #0x00	; 0
	.db #0x04	; 4
	.db #0x08	; 8
	.db #0x00	; 0
	.db #0x0c	; 12
	.db #0x00	; 0
	.db #0x0c	; 12
	.db #0x00	; 0
	.db #0x0c	; 12
	.db #0x00	; 0
	.db #0x0e	; 14
	.db #0x00	; 0
	.db #0x02	; 2
	.db #0x00	; 0
	.db #0x00	; 0
	.db #0x00	; 0
	.db #0x02	; 2
	.db #0x00	; 0
	.db #0x00	; 0
	.db #0x00	; 0
	.db #0x01	; 1
	.db #0x00	; 0
	.db #0x00	; 0
	.db #0x00	; 0
	.db #0x00	; 0
	.db #0x00	; 0
	.db #0x00	; 0
	.db #0x00	; 0
	.db #0x00	; 0
	.db #0x00	; 0
	.db #0x00	; 0
	.db #0x00	; 0
	.db #0x00	; 0
	.db #0x00	; 0
	.db #0x00	; 0
	.db #0x80	; 128
	.db #0x00	; 0
	.db #0x00	; 0
	.db #0x40	; 64
	.db #0x00	; 0
	.db #0x60	; 96
	.db #0x00	; 0
	.db #0x00	; 0
	.db #0x00	; 0
	.db #0x0c	; 12
	.db #0x00	; 0
	.db #0x0f	; 15
	.db #0x00	; 0
	.db #0x07	; 7
	.db #0x08	; 8
	.db #0x0f	; 15
	.db #0x00	; 0
	.db #0x03	; 3
	.db #0x0c	; 12
	.db #0x03	; 3
	.db #0x0c	; 12
	.db #0x00	; 0
	.db #0x0f	; 15
	.db #0x01	; 1
	.db #0x0e	; 14
	.db #0x00	; 0
	.db #0x00	; 0
	.db #0x00	; 0
	.db #0x00	; 0
	.db #0x00	; 0
	.db #0x00	; 0
	.db #0x80	; 128
	.db #0x00	; 0
	.db #0x00	; 0
	.db #0x00	; 0
	.db #0x80	; 128
	.db #0x00	; 0
	.db #0x80	; 128
	.db #0x00	; 0
	.db #0xe0	; 224
	.db #0x00	; 0
	.db #0x02	; 2
	.db #0x00	; 0
	.db #0x01	; 1
	.db #0x00	; 0
	.db #0x00	; 0
	.db #0x00	; 0
	.db #0x00	; 0
	.db #0x00	; 0
	.db #0x00	; 0
	.db #0x00	; 0
	.db #0x00	; 0
	.db #0x00	; 0
	.db #0x00	; 0
	.db #0x00	; 0
	.db #0x01	; 1
	.db #0x00	; 0
	.db #0x20	; 32
	.db #0x00	; 0
	.db #0x10	; 16
	.db #0x00	; 0
	.db #0x08	; 8
	.db #0x00	; 0
	.db #0x04	; 4
	.db #0x00	; 0
	.db #0x0a	; 10
	.db #0x00	; 0
	.db #0x02	; 2
	.db #0x00	; 0
	.db #0x03	; 3
	.db #0x00	; 0
	.db #0x2f	; 47
	.db #0x00	; 0
	.db #0x01	; 1
	.db #0x0e	; 14
	.db #0x00	; 0
	.db #0x03	; 3
	.db #0x00	; 0
	.db #0x02	; 2
	.db #0x00	; 0
	.db #0x01	; 1
	.db #0x00	; 0
	.db #0x01	; 1
	.db #0x00	; 0
	.db #0x00	; 0
	.db #0x00	; 0
	.db #0x00	; 0
	.db #0x01	; 1
	.db #0x00	; 0
	.db #0xf0	; 240
	.db #0x00	; 0
	.db #0xf0	; 240
	.db #0x00	; 0
	.db #0x70	; 112	'p'
	.db #0x80	; 128
	.db #0x78	; 120	'x'
	.db #0x80	; 128
	.db #0x38	; 56	'8'
	.db #0xc0	; 192
	.db #0x18	; 24
	.db #0xe0	; 224
	.db #0x18	; 24
	.db #0x60	; 96
	.db #0xcc	; 204
	.db #0x30	; 48	'0'
	.db #0x00	; 0
	.db #0x00	; 0
	.db #0x00	; 0
	.db #0x00	; 0
	.db #0x01	; 1
	.db #0x00	; 0
	.db #0x02	; 2
	.db #0x00	; 0
	.db #0x03	; 3
	.db #0x00	; 0
	.db #0x04	; 4
	.db #0x03	; 3
	.db #0x05	; 5
	.db #0x03	; 3
	.db #0x01	; 1
	.db #0x03	; 3
	.db #0x1f	; 31
	.db #0x00	; 0
	.db #0x5a	; 90	'Z'
	.db #0x05	; 5
	.db #0x76	; 118	'v'
	.db #0x0f	; 15
	.db #0xcf	; 207
	.db #0x3f	; 63
	.db #0x1f	; 31
	.db #0xff	; 255
	.db #0xff	; 255
	.db #0xff	; 255
	.db #0xff	; 255
	.db #0xff	; 255
	.db #0xff	; 255
	.db #0xff	; 255
	.db #0x80	; 128
	.db #0x00	; 0
	.db #0xc0	; 192
	.db #0x00	; 0
	.db #0xc0	; 192
	.db #0x00	; 0
	.db #0xc0	; 192
	.db #0x20	; 32
	.db #0x20	; 32
	.db #0xc0	; 192
	.db #0x80	; 128
	.db #0xe0	; 224
	.db #0xc0	; 192
	.db #0xa0	; 160
	.db #0xe0	; 224
	.db #0x80	; 128
	.db #0x0c	; 12
	.db #0x30	; 48	'0'
	.db #0x06	; 6
	.db #0x38	; 56	'8'
	.db #0x07	; 7
	.db #0x00	; 0
	.db #0x03	; 3
	.db #0x0c	; 12
	.db #0x03	; 3
	.db #0x04	; 4
	.db #0x02	; 2
	.db #0x00	; 0
	.db #0x03	; 3
	.db #0x00	; 0
	.db #0x43	; 67	'C'
	.db #0x00	; 0
	.db #0x00	; 0
	.db #0x00	; 0
	.db #0x03	; 3
	.db #0x00	; 0
	.db #0xff	; 255
	.db #0x00	; 0
	.db #0x7f	; 127
	.db #0x00	; 0
	.db #0xf1	; 241
	.db #0x0f	; 15
	.db #0xef	; 239
	.db #0x1f	; 31
	.db #0xff	; 255
	.db #0x1f	; 31
	.db #0x7f	; 127
	.db #0x1f	; 31
	.db #0x12	; 18
	.db #0x00	; 0
	.db #0xbe	; 190
	.db #0x00	; 0
	.db #0xfc	; 252
	.db #0x06	; 6
	.db #0xb5	; 181
	.db #0x4e	; 78	'N'
	.db #0xff	; 255
	.db #0xfe	; 254
	.db #0xfd	; 253
	.db #0xfe	; 254
	.db #0xfe	; 254
	.db #0xff	; 255
	.db #0xfe	; 254
	.db #0xff	; 255
	.db #0x8c	; 140
	.db #0x03	; 3
	.db #0x8c	; 140
	.db #0x03	; 3
	.db #0x7e	; 126
	.db #0x01	; 1
	.db #0x7e	; 126
	.db #0x01	; 1
	.db #0x7a	; 122	'z'
	.db #0x05	; 5
	.db #0x5b	; 91
	.db #0x24	; 36
	.db #0xc1	; 193
	.db #0x3e	; 62
	.db #0xc2	; 194
	.db #0x3f	; 63
	.db #0xff	; 255
	.db #0xff	; 255
	.db #0xff	; 255
	.db #0xff	; 255
	.db #0xff	; 255
	.db #0xff	; 255
	.db #0xff	; 255
	.db #0xff	; 255
	.db #0xff	; 255
	.db #0xff	; 255
	.db #0xff	; 255
	.db #0xff	; 255
	.db #0xff	; 255
	.db #0xff	; 255
	.db #0xfc	; 252
	.db #0xfe	; 254
	.db #0xc0	; 192
	.db #0xa0	; 160
	.db #0xa0	; 160
	.db #0xc0	; 192
	.db #0x60	; 96
	.db #0x80	; 128
	.db #0xc0	; 192
	.db #0x00	; 0
	.db #0x00	; 0
	.db #0x80	; 128
	.db #0x20	; 32
	.db #0x00	; 0
	.db #0x40	; 64
	.db #0x20	; 32
	.db #0x00	; 0
	.db #0x00	; 0
	.db #0x61	; 97	'a'
	.db #0x00	; 0
	.db #0x31	; 49	'1'
	.db #0x00	; 0
	.db #0x11	; 17
	.db #0x00	; 0
	.db #0x00	; 0
	.db #0x08	; 8
	.db #0x00	; 0
	.db #0x04	; 4
	.db #0x06	; 6
	.db #0x01	; 1
	.db #0x03	; 3
	.db #0x00	; 0
	.db #0x01	; 1
	.db #0x00	; 0
	.db #0xef	; 239
	.db #0x1f	; 31
	.db #0xff	; 255
	.db #0x1f	; 31
	.db #0xef	; 239
	.db #0x1f	; 31
	.db #0x6f	; 111	'o'
	.db #0x9f	; 159
	.db #0xef	; 239
	.db #0x1f	; 31
	.db #0x7f	; 127
	.db #0x0f	; 15
	.db #0x67	; 103	'g'
	.db #0x8f	; 143
	.db #0x4f	; 79	'O'
	.db #0x23	; 35
	.db #0xff	; 255
	.db #0xff	; 255
	.db #0xfe	; 254
	.db #0xff	; 255
	.db #0xff	; 255
	.db #0xfe	; 254
	.db #0xff	; 255
	.db #0xfe	; 254
	.db #0xff	; 255
	.db #0xfe	; 254
	.db #0xfd	; 253
	.db #0xfe	; 254
	.db #0xfc	; 252
	.db #0xfd	; 253
	.db #0xf2	; 242
	.db #0xf0	; 240
	.db #0x3e	; 62
	.db #0x9f	; 159
	.db #0x7e	; 126
	.db #0x9f	; 159
	.db #0x6e	; 110	'n'
	.db #0x9f	; 159
	.db #0xe8	; 232
	.db #0x1f	; 31
	.db #0x68	; 104	'h'
	.db #0x9f	; 159
	.db #0x63	; 99	'c'
	.db #0x9f	; 159
	.db #0x67	; 103	'g'
	.db #0x1f	; 31
	.db #0xa7	; 167
	.db #0x1f	; 31
	.db #0x0c	; 12
	.db #0xdc	; 220
	.db #0xe0	; 224
	.db #0x70	; 112	'p'
	.db #0x71	; 113	'q'
	.db #0x9c	; 156
	.db #0xb4	; 180
	.db #0x48	; 72	'H'
	.db #0xa8	; 168
	.db #0x50	; 80	'P'
	.db #0xc0	; 192
	.db #0x30	; 48	'0'
	.db #0x48	; 72	'H'
	.db #0xb0	; 176
	.db #0xe0	; 224
	.db #0x98	; 152
	.db #0x80	; 128
	.db #0x00	; 0
	.db #0x00	; 0
	.db #0x00	; 0
	.db #0x00	; 0
	.db #0x00	; 0
	.db #0x00	; 0
	.db #0x00	; 0
	.db #0x00	; 0
	.db #0x00	; 0
	.db #0x00	; 0
	.db #0x00	; 0
	.db #0x00	; 0
	.db #0x00	; 0
	.db #0x00	; 0
	.db #0x00	; 0
	.db #0x00	; 0
	.db #0x06	; 6
	.db #0x00	; 0
	.db #0x00	; 0
	.db #0x00	; 0
	.db #0x00	; 0
	.db #0x00	; 0
	.db #0x00	; 0
	.db #0x00	; 0
	.db #0x00	; 0
	.db #0x00	; 0
	.db #0x00	; 0
	.db #0x00	; 0
	.db #0x00	; 0
	.db #0x00	; 0
	.db #0x00	; 0
	.db #0xf0	; 240
	.db #0x00	; 0
	.db #0x38	; 56	'8'
	.db #0x40	; 64
	.db #0x04	; 4
	.db #0x02	; 2
	.db #0x1e	; 30
	.db #0x00	; 0
	.db #0x03	; 3
	.db #0x00	; 0
	.db #0x08	; 8
	.db #0x04	; 4
	.db #0x02	; 2
	.db #0x00	; 0
	.db #0x01	; 1
	.db #0x06	; 6
	.db #0xe3	; 227
	.db #0xe0	; 224
	.db #0x05	; 5
	.db #0x02	; 2
	.db #0x00	; 0
	.db #0x02	; 2
	.db #0x01	; 1
	.db #0x00	; 0
	.db #0x00	; 0
	.db #0x00	; 0
	.db #0x80	; 128
	.db #0x00	; 0
	.db #0x01	; 1
	.db #0x16	; 22
	.db #0x9f	; 159
	.db #0x00	; 0
	.db #0xff	; 255
	.db #0x0f	; 15
	.db #0xef	; 239
	.db #0x1f	; 31
	.db #0x7f	; 127
	.db #0x9f	; 159
	.db #0x7f	; 127
	.db #0x9f	; 159
	.db #0x6b	; 107	'k'
	.db #0x9f	; 159
	.db #0x68	; 104	'h'
	.db #0x9c	; 156
	.db #0xf0	; 240
	.db #0x08	; 8
	.db #0xf8	; 248
	.db #0x00	; 0
	.db #0xe2	; 226
	.db #0xdc	; 220
	.db #0xfc	; 252
	.db #0xe2	; 226
	.db #0xfe	; 254
	.db #0xe0	; 224
	.db #0x8c	; 140
	.db #0x82	; 130
	.db #0x8e	; 142
	.db #0x80	; 128
	.db #0x8f	; 143
	.db #0x00	; 0
	.db #0x0a	; 10
	.db #0x00	; 0
	.db #0x47	; 71	'G'
	.db #0x00	; 0
	.db #0x00	; 0
	.db #0x00	; 0
	.db #0x00	; 0
	.db #0x00	; 0
	.db #0x00	; 0
	.db #0x00	; 0
	.db #0x00	; 0
	.db #0x00	; 0
	.db #0x00	; 0
	.db #0x00	; 0
	.db #0x00	; 0
	.db #0x00	; 0
	.db #0x40	; 64
	.db #0x80	; 128
	.db #0x00	; 0
	.db #0x40	; 64
	.db #0x01	; 1
	.db #0x02	; 2
	.db #0x00	; 0
	.db #0x00	; 0
	.db #0x01	; 1
	.db #0x00	; 0
	.db #0x00	; 0
	.db #0x00	; 0
	.db #0x00	; 0
	.db #0x00	; 0
	.db #0x00	; 0
	.db #0x00	; 0
	.db #0x00	; 0
	.db #0x00	; 0
	.db #0x00	; 0
	.db #0x00	; 0
	.db #0x8e	; 142
	.db #0x20	; 32
	.db #0x41	; 65	'A'
	.db #0x8a	; 138
	.db #0x30	; 48	'0'
	.db #0xc7	; 199
	.db #0x30	; 48	'0'
	.db #0x00	; 0
	.db #0x18	; 24
	.db #0x03	; 3
	.db #0x0d	; 13
	.db #0x00	; 0
	.db #0x05	; 5
	.db #0x08	; 8
	.db #0x00	; 0
	.db #0x06	; 6
	.db #0xe0	; 224
	.db #0x00	; 0
	.db #0xe1	; 225
	.db #0x00	; 0
	.db #0xe1	; 225
	.db #0x00	; 0
	.db #0x7f	; 127
	.db #0x80	; 128
	.db #0x0f	; 15
	.db #0xf0	; 240
	.db #0xff	; 255
	.db #0x7f	; 127
	.db #0x3f	; 63
	.db #0xff	; 255
	.db #0xaf	; 175
	.db #0x50	; 80	'P'
	.db #0x54	; 84	'T'
	.db #0x02	; 2
	.db #0x7e	; 126
	.db #0x00	; 0
	.db #0x74	; 116	't'
	.db #0x08	; 8
	.db #0xe8	; 232
	.db #0x10	; 16
	.db #0x80	; 128
	.db #0x7e	; 126
	.db #0xc0	; 192
	.db #0xfc	; 252
	.db #0xd2	; 210
	.db #0xfd	; 253
	.db #0xd9	; 217
	.db #0x3e	; 62
	.db #0x01	; 1
	.db #0x00	; 0
	.db #0x01	; 1
	.db #0x00	; 0
	.db #0x00	; 0
	.db #0x00	; 0
	.db #0x02	; 2
	.db #0x00	; 0
	.db #0x10	; 16
	.db #0x00	; 0
	.db #0x18	; 24
	.db #0x00	; 0
	.db #0x10	; 16
	.db #0x08	; 8
	.db #0x05	; 5
	.db #0x00	; 0
	.db #0x00	; 0
	.db #0x00	; 0
	.db #0x80	; 128
	.db #0x00	; 0
	.db #0x00	; 0
	.db #0x80	; 128
	.db #0x00	; 0
	.db #0x00	; 0
	.db #0x02	; 2
	.db #0x00	; 0
	.db #0x01	; 1
	.db #0x00	; 0
	.db #0x06	; 6
	.db #0x00	; 0
	.db #0x08	; 8
	.db #0x00	; 0
	.db #0x00	; 0
	.db #0x00	; 0
	.db #0x00	; 0
	.db #0x00	; 0
	.db #0x00	; 0
	.db #0x00	; 0
	.db #0x80	; 128
	.db #0x00	; 0
	.db #0x00	; 0
	.db #0x00	; 0
	.db #0x00	; 0
	.db #0x00	; 0
	.db #0x00	; 0
	.db #0x00	; 0
	.db #0x00	; 0
	.db #0x00	; 0
	.db #0x00	; 0
	.db #0x03	; 3
	.db #0x00	; 0
	.db #0x00	; 0
	.db #0x00	; 0
	.db #0x00	; 0
	.db #0x00	; 0
	.db #0x00	; 0
	.db #0x00	; 0
	.db #0x00	; 0
	.db #0x00	; 0
	.db #0x00	; 0
	.db #0x00	; 0
	.db #0x00	; 0
	.db #0x00	; 0
	.db #0x00	; 0
	.db #0x6d	; 109	'm'
	.db #0x12	; 18
	.db #0x00	; 0
	.db #0x70	; 112	'p'
	.db #0x72	; 114	'r'
	.db #0x0d	; 13
	.db #0x37	; 55	'7'
	.db #0x08	; 8
	.db #0x03	; 3
	.db #0x0c	; 12
	.db #0x00	; 0
	.db #0x05	; 5
	.db #0x00	; 0
	.db #0x00	; 0
	.db #0x00	; 0
	.db #0x00	; 0
	.db #0x91	; 145
	.db #0x7e	; 126
	.db #0x23	; 35
	.db #0xc0	; 192
	.db #0xc3	; 195
	.db #0x00	; 0
	.db #0x06	; 6
	.db #0x00	; 0
	.db #0xd0	; 208
	.db #0x08	; 8
	.db #0x00	; 0
	.db #0x40	; 64
	.db #0x00	; 0
	.db #0x00	; 0
	.db #0x00	; 0
	.db #0x00	; 0
	.db #0x04	; 4
	.db #0x01	; 1
	.db #0x16	; 22
	.db #0x01	; 1
	.db #0x84	; 132
	.db #0x23	; 35
	.db #0xac	; 172
	.db #0x43	; 67	'C'
	.db #0x76	; 118	'v'
	.db #0x89	; 137
	.db #0x38	; 56	'8'
	.db #0x47	; 71	'G'
	.db #0x20	; 32
	.db #0x07	; 7
	.db #0x27	; 39
	.db #0x03	; 3
	.db #0x04	; 4
	.db #0x00	; 0
	.db #0x00	; 0
	.db #0xc0	; 192
	.db #0x08	; 8
	.db #0xe0	; 224
	.db #0x20	; 32
	.db #0xc0	; 192
	.db #0x38	; 56	'8'
	.db #0xc4	; 196
	.db #0x3c	; 60
	.db #0xc0	; 192
	.db #0x2e	; 46
	.db #0xd0	; 208
	.db #0x4f	; 79	'O'
	.db #0xb0	; 176
	.db #0x00	; 0
	.db #0x00	; 0
	.db #0x00	; 0
	.db #0x00	; 0
	.db #0x00	; 0
	.db #0x00	; 0
	.db #0x00	; 0
	.db #0x00	; 0
	.db #0x00	; 0
	.db #0x00	; 0
	.db #0x04	; 4
	.db #0x00	; 0
	.db #0x10	; 16
	.db #0x00	; 0
	.db #0x90	; 144
	.db #0x00	; 0
	.db #0x15	; 21
	.db #0x03	; 3
	.db #0x14	; 20
	.db #0x01	; 1
	.db #0x10	; 16
	.db #0x07	; 7
	.db #0x12	; 18
	.db #0x05	; 5
	.db #0x50	; 80	'P'
	.db #0x07	; 7
	.db #0x10	; 16
	.db #0x07	; 7
	.db #0x19	; 25
	.db #0x07	; 7
	.db #0x30	; 48	'0'
	.db #0x07	; 7
	.db #0x19	; 25
	.db #0xbe	; 190
	.db #0x59	; 89	'Y'
	.db #0xbe	; 190
	.db #0x1e	; 30
	.db #0xbf	; 191
	.db #0x8e	; 142
	.db #0x3f	; 63
	.db #0x86	; 134
	.db #0x3f	; 63
	.db #0x04	; 4
	.db #0xbe	; 190
	.db #0x46	; 70	'F'
	.db #0xbc	; 188
	.db #0x42	; 66	'B'
	.db #0xbc	; 188
	.db #0x80	; 128
	.db #0x00	; 0
	.db #0xa0	; 160
	.db #0x10	; 16
	.db #0x90	; 144
	.db #0x20	; 32
	.db #0xbc	; 188
	.db #0x40	; 64
	.db #0x3e	; 62
	.db #0xc0	; 192
	.db #0x1f	; 31
	.db #0xe0	; 224
	.db #0x1f	; 31
	.db #0xe0	; 224
	.db #0xcf	; 207
	.db #0xf0	; 240
	.db #0x00	; 0
	.db #0x00	; 0
	.db #0x00	; 0
	.db #0x00	; 0
	.db #0x00	; 0
	.db #0x00	; 0
	.db #0x00	; 0
	.db #0x00	; 0
	.db #0x01	; 1
	.db #0x00	; 0
	.db #0x02	; 2
	.db #0x01	; 1
	.db #0xcd	; 205
	.db #0x13	; 19
	.db #0x8f	; 143
	.db #0x3f	; 63
	.db #0x00	; 0
	.db #0x00	; 0
	.db #0x00	; 0
	.db #0x00	; 0
	.db #0x00	; 0
	.db #0x00	; 0
	.db #0xa3	; 163
	.db #0x08	; 8
	.db #0xa3	; 163
	.db #0x1c	; 28
	.db #0xc1	; 193
	.db #0x3e	; 62
	.db #0xf6	; 246
	.db #0xff	; 255
	.db #0xff	; 255
	.db #0xff	; 255
	.db #0x00	; 0
	.db #0x00	; 0
	.db #0x00	; 0
	.db #0x00	; 0
	.db #0x00	; 0
	.db #0x00	; 0
	.db #0xc0	; 192
	.db #0x00	; 0
	.db #0xc0	; 192
	.db #0x00	; 0
	.db #0xb0	; 176
	.db #0x40	; 64
	.db #0x30	; 48	'0'
	.db #0xcc	; 204
	.db #0x82	; 130
	.db #0xfc	; 252
	.db #0x27	; 39
	.db #0x00	; 0
	.db #0x31	; 49	'1'
	.db #0x06	; 6
	.db #0x40	; 64
	.db #0x07	; 7
	.db #0x04	; 4
	.db #0x23	; 35
	.db #0x2c	; 44
	.db #0x53	; 83	'S'
	.db #0x66	; 102	'f'
	.db #0x19	; 25
	.db #0x05	; 5
	.db #0x22	; 34
	.db #0x04	; 4
	.db #0x03	; 3
	.db #0x03	; 3
	.db #0xfc	; 252
	.db #0x8e	; 142
	.db #0x31	; 49	'1'
	.db #0xac	; 172
	.db #0x33	; 51	'3'
	.db #0x10	; 16
	.db #0x3f	; 63
	.db #0x2b	; 43
	.db #0x1c	; 28
	.db #0xaa	; 170
	.db #0x1c	; 28
	.db #0x16	; 22
	.db #0x28	; 40
	.db #0x16	; 22
	.db #0x20	; 32
	.db #0xcf	; 207
	.db #0xf0	; 240
	.db #0xcf	; 207
	.db #0xf0	; 240
	.db #0xc3	; 195
	.db #0xfc	; 252
	.db #0xf2	; 242
	.db #0xfd	; 253
	.db #0x76	; 118	'v'
	.db #0xf9	; 249
	.db #0xfd	; 253
	.db #0x73	; 115	's'
	.db #0xf3	; 243
	.db #0x7f	; 127
	.db #0xf3	; 243
	.db #0x7f	; 127
	.db #0x0f	; 15
	.db #0x3f	; 63
	.db #0x3f	; 63
	.db #0x7f	; 127
	.db #0x7f	; 127
	.db #0xff	; 255
	.db #0xf8	; 248
	.db #0xff	; 255
	.db #0xf0	; 240
	.db #0xff	; 255
	.db #0xe0	; 224
	.db #0xff	; 255
	.db #0xfc	; 252
	.db #0xc3	; 195
	.db #0xfc	; 252
	.db #0xc3	; 195
	.db #0xfd	; 253
	.db #0xff	; 255
	.db #0xff	; 255
	.db #0xff	; 255
	.db #0xff	; 255
	.db #0xff	; 255
	.db #0xff	; 255
	.db #0xff	; 255
	.db #0xff	; 255
	.db #0xff	; 255
	.db #0x1f	; 31
	.db #0xff	; 255
	.db #0x1f	; 31
	.db #0xff	; 255
	.db #0x1f	; 31
	.db #0xff	; 255
	.db #0x82	; 130
	.db #0xfc	; 252
	.db #0xe2	; 226
	.db #0xfd	; 253
	.db #0xa1	; 161
	.db #0xfe	; 254
	.db #0xc0	; 192
	.db #0xff	; 255
	.db #0xc0	; 192
	.db #0xff	; 255
	.db #0x80	; 128
	.db #0xff	; 255
	.db #0x82	; 130
	.db #0xfd	; 253
	.db #0x82	; 130
	.db #0xfd	; 253
	.db #0x00	; 0
	.db #0x00	; 0
	.db #0x80	; 128
	.db #0x00	; 0
	.db #0x00	; 0
	.db #0x80	; 128
	.db #0x80	; 128
	.db #0x40	; 64
	.db #0x40	; 64
	.db #0x80	; 128
	.db #0x00	; 0
	.db #0xe0	; 224
	.db #0x40	; 64
	.db #0x80	; 128
	.db #0x60	; 96
	.db #0x80	; 128
	.db #0x06	; 6
	.db #0x03	; 3
	.db #0x06	; 6
	.db #0x23	; 35
	.db #0x16	; 22
	.db #0x03	; 3
	.db #0x16	; 22
	.db #0x03	; 3
	.db #0x16	; 22
	.db #0x03	; 3
	.db #0x16	; 22
	.db #0x03	; 3
	.db #0x0b	; 11
	.db #0x02	; 2
	.db #0x0e	; 14
	.db #0x03	; 3
	.db #0x03	; 3
	.db #0x30	; 48	'0'
	.db #0x0e	; 14
	.db #0x31	; 49	'1'
	.db #0x00	; 0
	.db #0x33	; 51	'3'
	.db #0x41	; 65	'A'
	.db #0x33	; 51	'3'
	.db #0x50	; 80	'P'
	.db #0x23	; 35
	.db #0x74	; 116	't'
	.db #0x23	; 35
	.db #0x34	; 52	'4'
	.db #0x63	; 99	'c'
	.db #0xb0	; 176
	.db #0x67	; 103	'g'
	.db #0xe3	; 227
	.db #0x7f	; 127
	.db #0x77	; 119	'w'
	.db #0xef	; 239
	.db #0x63	; 99	'c'
	.db #0xdf	; 223
	.db #0x63	; 99	'c'
	.db #0xdf	; 223
	.db #0x23	; 35
	.db #0xdf	; 223
	.db #0x40	; 64
	.db #0x3f	; 63
	.db #0x50	; 80	'P'
	.db #0x2f	; 47
	.db #0xe0	; 224
	.db #0x1f	; 31
	.db #0x7e	; 126
	.db #0x81	; 129
	.db #0x7f	; 127
	.db #0x80	; 128
	.db #0x73	; 115	's'
	.db #0x80	; 128
	.db #0x73	; 115	's'
	.db #0x80	; 128
	.db #0x7f	; 127
	.db #0x80	; 128
	.db #0x31	; 49	'1'
	.db #0xc0	; 192
	.db #0x30	; 48	'0'
	.db #0xc0	; 192
	.db #0xbc	; 188
	.db #0x40	; 64
	.db #0x00	; 0
	.db #0xff	; 255
	.db #0xc0	; 192
	.db #0x3f	; 63
	.db #0xf8	; 248
	.db #0x07	; 7
	.db #0xf8	; 248
	.db #0x07	; 7
	.db #0xff	; 255
	.db #0x00	; 0
	.db #0x7f	; 127
	.db #0x00	; 0
	.db #0x3f	; 63
	.db #0x00	; 0
	.db #0x1a	; 26
	.db #0x00	; 0
	.db #0x01	; 1
	.db #0xfe	; 254
	.db #0x65	; 101	'e'
	.db #0x9a	; 154
	.db #0x5e	; 94
	.db #0xa1	; 161
	.db #0x4e	; 78	'N'
	.db #0xb1	; 177
	.db #0xff	; 255
	.db #0x00	; 0
	.db #0xff	; 255
	.db #0x00	; 0
	.db #0xfd	; 253
	.db #0x02	; 2
	.db #0x7f	; 127
	.db #0x00	; 0
	.db #0x80	; 128
	.db #0x70	; 112	'p'
	.db #0xe0	; 224
	.db #0x10	; 16
	.db #0x60	; 96
	.db #0x90	; 144
	.db #0x60	; 96
	.db #0x90	; 144
	.db #0xf0	; 240
	.db #0x00	; 0
	.db #0xe0	; 224
	.db #0x10	; 16
	.db #0xe0	; 224
	.db #0x10	; 16
	.db #0xe0	; 224
	.db #0x00	; 0
	.db #0x04	; 4
	.db #0x03	; 3
	.db #0x0c	; 12
	.db #0x03	; 3
	.db #0x0e	; 14
	.db #0x01	; 1
	.db #0x0a	; 10
	.db #0x05	; 5
	.db #0x00	; 0
	.db #0x07	; 7
	.db #0x00	; 0
	.db #0x07	; 7
	.db #0x03	; 3
	.db #0x00	; 0
	.db #0x04	; 4
	.db #0x00	; 0
	.db #0xbe	; 190
	.db #0x61	; 97	'a'
	.db #0xfb	; 251
	.db #0x60	; 96
	.db #0xf0	; 240
	.db #0x69	; 105	'i'
	.db #0x70	; 112	'p'
	.db #0xe0	; 224
	.db #0x60	; 96
	.db #0xf1	; 241
	.db #0x50	; 80	'P'
	.db #0xe1	; 225
	.db #0x40	; 64
	.db #0xe0	; 224
	.db #0x10	; 16
	.db #0x00	; 0
	.db #0xa1	; 161
	.db #0x5e	; 94
	.db #0x5d	; 93
	.db #0xa2	; 162
	.db #0xd9	; 217
	.db #0x26	; 38
	.db #0x71	; 113	'q'
	.db #0x8e	; 142
	.db #0x1f	; 31
	.db #0xe0	; 224
	.db #0x1b	; 27
	.db #0x24	; 36
	.db #0x3e	; 62
	.db #0x00	; 0
	.db #0x0f	; 15
	.db #0x10	; 16
	.db #0xbc	; 188
	.db #0x40	; 64
	.db #0xb5	; 181
	.db #0x40	; 64
	.db #0xbd	; 189
	.db #0x40	; 64
	.db #0xf0	; 240
	.db #0x00	; 0
	.db #0xf4	; 244
	.db #0x00	; 0
	.db #0xfd	; 253
	.db #0x00	; 0
	.db #0xf0	; 240
	.db #0x00	; 0
	.db #0xfc	; 252
	.db #0x00	; 0
	.db #0x83	; 131
	.db #0x00	; 0
	.db #0x04	; 4
	.db #0x00	; 0
	.db #0x05	; 5
	.db #0x00	; 0
	.db #0x00	; 0
	.db #0x00	; 0
	.db #0x00	; 0
	.db #0x00	; 0
	.db #0x00	; 0
	.db #0x00	; 0
	.db #0x80	; 128
	.db #0x00	; 0
	.db #0x00	; 0
	.db #0x00	; 0
	.db #0x3f	; 63
	.db #0x00	; 0
	.db #0x07	; 7
	.db #0x00	; 0
	.db #0x57	; 87	'W'
	.db #0x00	; 0
	.db #0x07	; 7
	.db #0x00	; 0
	.db #0x01	; 1
	.db #0x00	; 0
	.db #0x01	; 1
	.db #0x00	; 0
	.db #0x01	; 1
	.db #0x00	; 0
	.db #0x13	; 19
	.db #0x00	; 0
	.db #0xe0	; 224
	.db #0x00	; 0
	.db #0xe0	; 224
	.db #0x00	; 0
	.db #0xe0	; 224
	.db #0x00	; 0
	.db #0xc0	; 192
	.db #0x20	; 32
	.db #0xc0	; 192
	.db #0x00	; 0
	.db #0xc0	; 192
	.db #0x00	; 0
	.db #0x80	; 128
	.db #0x00	; 0
	.db #0x00	; 0
	.db #0x80	; 128
	.db #0x00	; 0
	.db #0x04	; 4
	.db #0x02	; 2
	.db #0x04	; 4
	.db #0x01	; 1
	.db #0x00	; 0
	.db #0x03	; 3
	.db #0x00	; 0
	.db #0x01	; 1
	.db #0x00	; 0
	.db #0x01	; 1
	.db #0x00	; 0
	.db #0x00	; 0
	.db #0x01	; 1
	.db #0x00	; 0
	.db #0x00	; 0
	.db #0x20	; 32
	.db #0x10	; 16
	.db #0x04	; 4
	.db #0x00	; 0
	.db #0x80	; 128
	.db #0x00	; 0
	.db #0x80	; 128
	.db #0x00	; 0
	.db #0xd0	; 208
	.db #0x08	; 8
	.db #0xe0	; 224
	.db #0x10	; 16
	.db #0xc0	; 192
	.db #0x00	; 0
	.db #0x80	; 128
	.db #0x00	; 0
	.db #0x1f	; 31
	.db #0x00	; 0
	.db #0x1f	; 31
	.db #0x00	; 0
	.db #0x0f	; 15
	.db #0x00	; 0
	.db #0x0f	; 15
	.db #0x00	; 0
	.db #0x05	; 5
	.db #0x02	; 2
	.db #0x05	; 5
	.db #0x02	; 2
	.db #0x03	; 3
	.db #0x00	; 0
	.db #0x00	; 0
	.db #0x00	; 0
	.db #0xe1	; 225
	.db #0x00	; 0
	.db #0xe1	; 225
	.db #0x00	; 0
	.db #0xdc	; 220
	.db #0x00	; 0
	.db #0xcc	; 204
	.db #0x00	; 0
	.db #0xd1	; 209
	.db #0x00	; 0
	.db #0xd1	; 209
	.db #0x00	; 0
	.db #0xf3	; 243
	.db #0x00	; 0
	.db #0x7f	; 127
	.db #0x00	; 0
	.db #0x00	; 0
	.db #0x00	; 0
	.db #0x00	; 0
	.db #0x00	; 0
	.db #0x80	; 128
	.db #0x00	; 0
	.db #0x00	; 0
	.db #0x00	; 0
	.db #0x00	; 0
	.db #0x00	; 0
	.db #0x00	; 0
	.db #0x00	; 0
	.db #0x01	; 1
	.db #0x00	; 0
	.db #0x7c	; 124
	.db #0x00	; 0
	.db #0x12	; 18
	.db #0x00	; 0
	.db #0x12	; 18
	.db #0x00	; 0
	.db #0x0c	; 12
	.db #0x00	; 0
	.db #0x00	; 0
	.db #0x00	; 0
	.db #0x60	; 96
	.db #0x00	; 0
	.db #0xe0	; 224
	.db #0x00	; 0
	.db #0xe0	; 224
	.db #0x00	; 0
	.db #0x00	; 0
	.db #0x00	; 0
	.db #0x7f	; 127
	.db #0x00	; 0
	.db #0x00	; 0
	.db #0x00	; 0
	.db #0x00	; 0
	.db #0x00	; 0
	.db #0x00	; 0
	.db #0x00	; 0
	.db #0x00	; 0
	.db #0x00	; 0
	.db #0x00	; 0
	.db #0x00	; 0
	.db #0x00	; 0
	.db #0x00	; 0
	.db #0x00	; 0
	.db #0x00	; 0
	.db #0x3c	; 60
	.db #0x00	; 0
	.db #0x00	; 0
	.db #0x00	; 0
	.db #0x00	; 0
	.db #0x00	; 0
	.db #0x00	; 0
	.db #0x00	; 0
	.db #0x00	; 0
	.db #0x00	; 0
	.db #0x00	; 0
	.db #0x00	; 0
	.db #0x00	; 0
	.db #0x00	; 0
	.db #0x00	; 0
	.db #0x00	; 0
_skullTrumpetBGMapData:
	.db #0x00	; 0
	.db #0x00	; 0
	.db #0x00	; 0
	.db #0x00	; 0
	.db #0x00	; 0
	.db #0x00	; 0
	.db #0x00	; 0
	.db #0x00	; 0
	.db #0x00	; 0
	.db #0x00	; 0
	.db #0x00	; 0
	.db #0x00	; 0
	.db #0x00	; 0
	.db #0x00	; 0
	.db #0x00	; 0
	.db #0x00	; 0
	.db #0x00	; 0
	.db #0x00	; 0
	.db #0x00	; 0
	.db #0x00	; 0
	.db #0x00	; 0
	.db #0x00	; 0
	.db #0x00	; 0
	.db #0x00	; 0
	.db #0x00	; 0
	.db #0x00	; 0
	.db #0x00	; 0
	.db #0x00	; 0
	.db #0x00	; 0
	.db #0x00	; 0
	.db #0x00	; 0
	.db #0x00	; 0
	.db #0x00	; 0
	.db #0x00	; 0
	.db #0x00	; 0
	.db #0x00	; 0
	.db #0x00	; 0
	.db #0x00	; 0
	.db #0x00	; 0
	.db #0x00	; 0
	.db #0x00	; 0
	.db #0x00	; 0
	.db #0x00	; 0
	.db #0x00	; 0
	.db #0x00	; 0
	.db #0x01	; 1
	.db #0x02	; 2
	.db #0x03	; 3
	.db #0x04	; 4
	.db #0x00	; 0
	.db #0x00	; 0
	.db #0x00	; 0
	.db #0x00	; 0
	.db #0x00	; 0
	.db #0x00	; 0
	.db #0x00	; 0
	.db #0x00	; 0
	.db #0x00	; 0
	.db #0x00	; 0
	.db #0x00	; 0
	.db #0x00	; 0
	.db #0x00	; 0
	.db #0x00	; 0
	.db #0x00	; 0
	.db #0x05	; 5
	.db #0x00	; 0
	.db #0x00	; 0
	.db #0x00	; 0
	.db #0x06	; 6
	.db #0x07	; 7
	.db #0x00	; 0
	.db #0x00	; 0
	.db #0x00	; 0
	.db #0x00	; 0
	.db #0x00	; 0
	.db #0x00	; 0
	.db #0x00	; 0
	.db #0x00	; 0
	.db #0x00	; 0
	.db #0x00	; 0
	.db #0x00	; 0
	.db #0x00	; 0
	.db #0x00	; 0
	.db #0x00	; 0
	.db #0x08	; 8
	.db #0x09	; 9
	.db #0x00	; 0
	.db #0x00	; 0
	.db #0x0a	; 10
	.db #0x0b	; 11
	.db #0x00	; 0
	.db #0x00	; 0
	.db #0x00	; 0
	.db #0x00	; 0
	.db #0x00	; 0
	.db #0x00	; 0
	.db #0x00	; 0
	.db #0x00	; 0
	.db #0x00	; 0
	.db #0x00	; 0
	.db #0x00	; 0
	.db #0x00	; 0
	.db #0x00	; 0
	.db #0x00	; 0
	.db #0x0c	; 12
	.db #0x0d	; 13
	.db #0x00	; 0
	.db #0x00	; 0
	.db #0x0e	; 14
	.db #0x0f	; 15
	.db #0x10	; 16
	.db #0x00	; 0
	.db #0x00	; 0
	.db #0x00	; 0
	.db #0x00	; 0
	.db #0x00	; 0
	.db #0x00	; 0
	.db #0x00	; 0
	.db #0x00	; 0
	.db #0x00	; 0
	.db #0x00	; 0
	.db #0x00	; 0
	.db #0x00	; 0
	.db #0x00	; 0
	.db #0x00	; 0
	.db #0x11	; 17
	.db #0x12	; 18
	.db #0x13	; 19
	.db #0x14	; 20
	.db #0x15	; 21
	.db #0x16	; 22
	.db #0x00	; 0
	.db #0x00	; 0
	.db #0x00	; 0
	.db #0x00	; 0
	.db #0x00	; 0
	.db #0x00	; 0
	.db #0x00	; 0
	.db #0x00	; 0
	.db #0x00	; 0
	.db #0x00	; 0
	.db #0x00	; 0
	.db #0x00	; 0
	.db #0x00	; 0
	.db #0x00	; 0
	.db #0x17	; 23
	.db #0x18	; 24
	.db #0x19	; 25
	.db #0x1a	; 26
	.db #0x1b	; 27
	.db #0x1c	; 28
	.db #0x00	; 0
	.db #0x00	; 0
	.db #0x00	; 0
	.db #0x00	; 0
	.db #0x00	; 0
	.db #0x00	; 0
	.db #0x00	; 0
	.db #0x00	; 0
	.db #0x00	; 0
	.db #0x00	; 0
	.db #0x00	; 0
	.db #0x00	; 0
	.db #0x00	; 0
	.db #0x00	; 0
	.db #0x1d	; 29
	.db #0x1e	; 30
	.db #0x1f	; 31
	.db #0x20	; 32
	.db #0x21	; 33
	.db #0x00	; 0
	.db #0x22	; 34
	.db #0x00	; 0
	.db #0x00	; 0
	.db #0x00	; 0
	.db #0x00	; 0
	.db #0x00	; 0
	.db #0x00	; 0
	.db #0x00	; 0
	.db #0x00	; 0
	.db #0x00	; 0
	.db #0x00	; 0
	.db #0x00	; 0
	.db #0x00	; 0
	.db #0x00	; 0
	.db #0x00	; 0
	.db #0x23	; 35
	.db #0x24	; 36
	.db #0x25	; 37
	.db #0x26	; 38
	.db #0x27	; 39
	.db #0x28	; 40
	.db #0x29	; 41
	.db #0x00	; 0
	.db #0x00	; 0
	.db #0x00	; 0
	.db #0x00	; 0
	.db #0x00	; 0
	.db #0x00	; 0
	.db #0x00	; 0
	.db #0x00	; 0
	.db #0x00	; 0
	.db #0x00	; 0
	.db #0x00	; 0
	.db #0x00	; 0
	.db #0x00	; 0
	.db #0x00	; 0
	.db #0x2a	; 42
	.db #0x2b	; 43
	.db #0x2c	; 44
	.db #0x2d	; 45
	.db #0x2e	; 46
	.db #0x2f	; 47
	.db #0x00	; 0
	.db #0x00	; 0
	.db #0x00	; 0
	.db #0x00	; 0
	.db #0x00	; 0
	.db #0x00	; 0
	.db #0x00	; 0
	.db #0x00	; 0
	.db #0x00	; 0
	.db #0x00	; 0
	.db #0x00	; 0
	.db #0x00	; 0
	.db #0x00	; 0
	.db #0x00	; 0
	.db #0x00	; 0
	.db #0x00	; 0
	.db #0x00	; 0
	.db #0x30	; 48	'0'
	.db #0x31	; 49	'1'
	.db #0x32	; 50	'2'
	.db #0x33	; 51	'3'
	.db #0x34	; 52	'4'
	.db #0x35	; 53	'5'
	.db #0x00	; 0
	.db #0x00	; 0
	.db #0x00	; 0
	.db #0x00	; 0
	.db #0x00	; 0
	.db #0x00	; 0
	.db #0x00	; 0
	.db #0x00	; 0
	.db #0x00	; 0
	.db #0x00	; 0
	.db #0x00	; 0
	.db #0x00	; 0
	.db #0x00	; 0
	.db #0x00	; 0
	.db #0x36	; 54	'6'
	.db #0x37	; 55	'7'
	.db #0x38	; 56	'8'
	.db #0x39	; 57	'9'
	.db #0x3a	; 58
	.db #0x3b	; 59
	.db #0x3c	; 60
	.db #0x00	; 0
	.db #0x00	; 0
	.db #0x00	; 0
	.db #0x00	; 0
	.db #0x00	; 0
	.db #0x00	; 0
	.db #0x00	; 0
	.db #0x00	; 0
	.db #0x00	; 0
	.db #0x00	; 0
	.db #0x00	; 0
	.db #0x00	; 0
	.db #0x00	; 0
	.db #0x3d	; 61
	.db #0x3e	; 62
	.db #0x3f	; 63
	.db #0x40	; 64
	.db #0x41	; 65	'A'
	.db #0x42	; 66	'B'
	.db #0x43	; 67	'C'
	.db #0x00	; 0
	.db #0x00	; 0
	.db #0x00	; 0
	.db #0x00	; 0
	.db #0x00	; 0
	.db #0x00	; 0
	.db #0x00	; 0
	.db #0x00	; 0
	.db #0x00	; 0
	.db #0x00	; 0
	.db #0x00	; 0
	.db #0x00	; 0
	.db #0x00	; 0
	.db #0x44	; 68	'D'
	.db #0x45	; 69	'E'
	.db #0x46	; 70	'F'
	.db #0x47	; 71	'G'
	.db #0x48	; 72	'H'
	.db #0x49	; 73	'I'
	.db #0x4a	; 74	'J'
	.db #0x00	; 0
	.db #0x00	; 0
	.db #0x00	; 0
	.db #0x00	; 0
	.db #0x00	; 0
	.db #0x00	; 0
	.db #0x00	; 0
	.db #0x00	; 0
	.db #0x00	; 0
	.db #0x00	; 0
	.db #0x00	; 0
	.db #0x00	; 0
	.db #0x00	; 0
	.db #0x4b	; 75	'K'
	.db #0x4c	; 76	'L'
	.db #0x4d	; 77	'M'
	.db #0x4e	; 78	'N'
	.db #0x4f	; 79	'O'
	.db #0x50	; 80	'P'
	.db #0x00	; 0
	.db #0x00	; 0
	.db #0x00	; 0
	.db #0x00	; 0
	.db #0x00	; 0
	.db #0x00	; 0
	.db #0x00	; 0
	.db #0x00	; 0
	.db #0x00	; 0
	.db #0x00	; 0
	.db #0x00	; 0
	.db #0x00	; 0
	.db #0x00	; 0
	.db #0x00	; 0
	.db #0x00	; 0
	.db #0x00	; 0
	.db #0x00	; 0
	.db #0x51	; 81	'Q'
	.db #0x52	; 82	'R'
	.db #0x00	; 0
	.db #0x00	; 0
	.db #0x00	; 0
	.db #0x00	; 0
	.db #0x00	; 0
	.db #0x00	; 0
	.db #0x00	; 0
	.db #0x00	; 0
	.db #0x00	; 0
	.db #0x00	; 0
	.db #0x00	; 0
	.db #0x00	; 0
	.db #0x00	; 0
	.db #0x00	; 0
	.db #0x00	; 0
	.db #0x00	; 0
	.db #0x00	; 0
	.db #0x00	; 0
	.db #0x00	; 0
	.db #0x00	; 0
	.db #0x00	; 0
	.db #0x00	; 0
	.db #0x00	; 0
	.db #0x00	; 0
	.db #0x00	; 0
	.area _CODE
	.area _CABS (ABS)
